; Function Attrs: mustprogress nounwind uwtable
define internal fastcc noundef zeroext i1 @_ZN5clang19RecursiveASTVisitorIN12_GLOBAL__N_113EHCodeVisitorEE16TraverseAutoTypeEPNS_8AutoTypeE(ptr noundef nonnull align 1 dereferenceable(1) %0, ptr noundef readonly %1) unnamed_addr #0 align 2 {
  %3 = getelementptr inbounds nuw i8, ptr %1, i64 24
  %.sroa.0.0.copyload.i = load i64, ptr %3, align 8
  %4 = tail call fastcc noundef zeroext i1 @_ZN5clang19RecursiveASTVisitorIN12_GLOBAL__N_113EHCodeVisitorEE12TraverseTypeENS_8QualTypeE(ptr noundef nonnull align 1 dereferenceable(1) %0, i64 %.sroa.0.0.copyload.i)
  br i1 %4, label %5, label %_ZN5clang19RecursiveASTVisitorIN12_GLOBAL__N_113EHCodeVisitorEE25TraverseTemplateArgumentsEN4llvm8ArrayRefINS_16TemplateArgumentEEE.exit

5:                                                ; preds = %2
  %6 = getelementptr inbounds nuw i8, ptr %1, i64 40
  %7 = load ptr, ptr %6, align 8
  %.not = icmp eq ptr %7, null
  br i1 %.not, label %_ZN5clang19RecursiveASTVisitorIN12_GLOBAL__N_113EHCodeVisitorEE25TraverseTemplateArgumentsEN4llvm8ArrayRefINS_16TemplateArgumentEEE.exit, label %8

8:                                                ; preds = %5
  %9 = getelementptr inbounds i8, ptr %1, i64 20
  %10 = load i32, ptr %9, align 4
  %11 = zext i32 %10 to i64
  %.idx = mul nuw nsw i64 %11, 24
  %12 = getelementptr inbounds i8, ptr %1, i64 %.idx
  %.ptr13 = getelementptr inbounds i8, ptr %12, i64 48
  %.not.i9 = icmp eq i32 %10, 0
  br i1 %.not.i9, label %_ZN5clang19RecursiveASTVisitorIN12_GLOBAL__N_113EHCodeVisitorEE25TraverseTemplateArgumentsEN4llvm8ArrayRefINS_16TemplateArgumentEEE.exit, label %.lr.ph.preheader

.lr.ph.preheader:                                 ; preds = %8
  %.ptr = getelementptr inbounds i8, ptr %1, i64 48
  br label %.lr.ph

.lr.ph:                                           ; preds = %.lr.ph, %.lr.ph.preheader
  %.09.i10 = phi ptr [ %.ptr, %.lr.ph.preheader ], [ %14, %.lr.ph ]
  %13 = tail call fastcc noundef zeroext i1 @_ZN5clang19RecursiveASTVisitorIN12_GLOBAL__N_113EHCodeVisitorEE24TraverseTemplateArgumentERKNS_16TemplateArgumentE(ptr noundef nonnull align 1 dereferenceable(1) %0, ptr noundef nonnull align 8 dereferenceable(24) %.09.i10)
  %14 = getelementptr inbounds i8, ptr %.09.i10, i64 24
  %.not.i = icmp ne ptr %14, %.ptr13
  %or.cond.not = select i1 %13, i1 %.not.i, i1 false
  br i1 %or.cond.not, label %.lr.ph, label %_ZN5clang19RecursiveASTVisitorIN12_GLOBAL__N_113EHCodeVisitorEE25TraverseTemplateArgumentsEN4llvm8ArrayRefINS_16TemplateArgumentEEE.exit

_ZN5clang19RecursiveASTVisitorIN12_GLOBAL__N_113EHCodeVisitorEE25TraverseTemplateArgumentsEN4llvm8ArrayRefINS_16TemplateArgumentEEE.exit: ; preds = %.lr.ph, %8, %5, %2
  %.0 = phi i1 [ false, %2 ], [ true, %5 ], [ true, %8 ], [ %13, %.lr.ph ]
  ret i1 %.0
}